; Function Attrs: nounwind uwtable
define ptr @l_Lean_Meta_transformWithCache_visit_visitLambda___at_Lean_Meta_IndPredBelow_mkCtorType_checkCount___spec__5___lambda__1___boxed(ptr noundef %0, ptr noundef %1, ptr noundef %2, ptr noundef %3, ptr noundef %4, ptr noundef %5, ptr noundef %6, ptr noundef %7, ptr noundef %8, ptr noundef %9, ptr noundef %10, ptr noundef %11, ptr noundef %12, ptr noundef %13, ptr noundef %14, ptr noundef %15) #0 {
  %17 = ptrtoint ptr %3 to i64
  %18 = and i64 %17, 1
  %.not = icmp eq i64 %18, 0
  br i1 %.not, label %19, label %lean_dec.exit20

19:                                               ; preds = %16
  %20 = load i32, ptr %3, align 4, !tbaa !12
  %21 = icmp sgt i32 %20, 1
  br i1 %21, label %22, label %24, !prof !11

22:                                               ; preds = %19
  %23 = add nsw i32 %20, -1
  store i32 %23, ptr %3, align 4, !tbaa !12
  br label %lean_dec.exit20

24:                                               ; preds = %19
  %.not.i = icmp eq i32 %20, 0
  br i1 %.not.i, label %lean_dec.exit20, label %25

25:                                               ; preds = %24
  tail call void @lean_dec_ref_cold(ptr noundef nonnull %3) #6
  br label %lean_dec.exit20

lean_dec.exit20:                                  ; preds = %25, %24, %22, %16
  %26 = ptrtoint ptr %4 to i64
  %27 = and i64 %26, 1
  %.not23 = icmp eq i64 %27, 0
  br i1 %.not23, label %28, label %lean_dec.exit

28:                                               ; preds = %lean_dec.exit20
  %29 = load i32, ptr %4, align 4, !tbaa !12
  %30 = icmp sgt i32 %29, 1
  br i1 %30, label %31, label %33, !prof !11

31:                                               ; preds = %28
  %32 = add nsw i32 %29, -1
  store i32 %32, ptr %4, align 4, !tbaa !12
  br label %lean_dec.exit

33:                                               ; preds = %28
  %.not.i21 = icmp eq i32 %29, 0
  br i1 %.not.i21, label %lean_dec.exit, label %34

34:                                               ; preds = %33
  tail call void @lean_dec_ref_cold(ptr noundef nonnull %4) #6
  br label %lean_dec.exit

lean_dec.exit:                                    ; preds = %34, %33, %31, %lean_dec.exit20
  %35 = lshr i64 %26, 1
  %36 = trunc i64 %35 to i8
  %37 = lshr i64 %17, 1
  %38 = trunc i64 %37 to i8
  %39 = tail call ptr @lean_array_push(ptr noundef %0, ptr noundef %8) #6
  %40 = tail call ptr @l_Lean_Meta_transformWithCache_visit_visitLambda___at_Lean_Meta_IndPredBelow_mkCtorType_checkCount___spec__5(ptr noundef %1, ptr noundef %2, i8 noundef zeroext %38, i8 noundef zeroext %36, ptr noundef %5, ptr noundef %6, ptr noundef %39, ptr noundef %7, ptr noundef %9, ptr noundef %10, ptr noundef %11, ptr noundef %12, ptr noundef %13, ptr noundef %14, ptr noundef %15)
  ret ptr %40
}